; ModuleID = '44/899.c'
source_filename = "44/899.c"
target datalayout = "e-m:e-p270:32:32-p271:32:32-p272:64:64-i64:64-f80:128-n8:16:32:64-S128"
target triple = "x86_64-pc-linux-gnu"

@.str = private unnamed_addr constant [3 x i8] c"%d\00", align 1
@.str.1 = private unnamed_addr constant [4 x i8] c"%d\0A\00", align 1

; Function Attrs: noinline nounwind uwtable
define dso_local void @main() #0 {
  %1 = alloca [6 x i32], align 16
  %2 = alloca i32, align 4
  store i32 0, i32* %2, align 4
  br label %3

3:                                                ; preds = %11, %0
  %4 = load i32, i32* %2, align 4
  %5 = icmp slt i32 %4, 6
  br i1 %5, label %6, label %14

6:                                                ; preds = %3
  %7 = load i32, i32* %2, align 4
  %8 = sext i32 %7 to i64
  %9 = getelementptr inbounds [6 x i32], [6 x i32]* %1, i64 0, i64 %8
  %10 = call i32 (i8*, ...) @__isoc99_scanf(i8* getelementptr inbounds ([3 x i8], [3 x i8]* @.str, i64 0, i64 0), i32* %9)
  br label %11

11:                                               ; preds = %6
  %12 = load i32, i32* %2, align 4
  %13 = add nsw i32 %12, 1
  store i32 %13, i32* %2, align 4
  br label %3

14:                                               ; preds = %3
  store i32 0, i32* %2, align 4
  br label %15

15:                                               ; preds = %32, %14
  %16 = load i32, i32* %2, align 4
  %17 = icmp slt i32 %16, 6
  br i1 %17, label %18, label %35

18:                                               ; preds = %15
  %19 = load i32, i32* %2, align 4
  %20 = sext i32 %19 to i64
  %21 = getelementptr inbounds [6 x i32], [6 x i32]* %1, i64 0, i64 %20
  %22 = load i32, i32* %21, align 4
  %23 = call i32 @rvs(i32 %22)
  %24 = load i32, i32* %2, align 4
  %25 = sext i32 %24 to i64
  %26 = getelementptr inbounds [6 x i32], [6 x i32]* %1, i64 0, i64 %25
  store i32 %23, i32* %26, align 4
  %27 = load i32, i32* %2, align 4
  %28 = sext i32 %27 to i64
  %29 = getelementptr inbounds [6 x i32], [6 x i32]* %1, i64 0, i64 %28
  %30 = load i32, i32* %29, align 4
  %31 = call i32 (i8*, ...) @printf(i8* getelementptr inbounds ([4 x i8], [4 x i8]* @.str.1, i64 0, i64 0), i32 %30)
  br label %32

32:                                               ; preds = %18
  %33 = load i32, i32* %2, align 4
  %34 = add nsw i32 %33, 1
  store i32 %34, i32* %2, align 4
  br label %15

35:                                               ; preds = %15
  ret void
}

declare dso_local i32 @__isoc99_scanf(i8*, ...) #1

; Function Attrs: noinline nounwind uwtable
define dso_local i32 @rvs(i32 %0) #0 {
  %2 = alloca i32, align 4
  %3 = alloca [5 x i32], align 16
  %4 = alloca i32, align 4
  %5 = alloca i32, align 4
  %6 = alloca i32, align 4
  store i32 %0, i32* %2, align 4
  %7 = load i32, i32* %2, align 4
  %8 = icmp slt i32 %7, 0
  br i1 %8, label %9, label %10

9:                                                ; preds = %1
  store i32 -1, i32* %4, align 4
  br label %16

10:                                               ; preds = %1
  %11 = load i32, i32* %2, align 4
  %12 = icmp eq i32 %11, 0
  br i1 %12, label %13, label %14

13:                                               ; preds = %10
  store i32 0, i32* %4, align 4
  br label %15

14:                                               ; preds = %10
  store i32 1, i32* %4, align 4
  br label %15

15:                                               ; preds = %14, %13
  br label %16

16:                                               ; preds = %15, %9
  %17 = load i32, i32* %4, align 4
  %18 = load i32, i32* %2, align 4
  %19 = mul nsw i32 %18, %17
  store i32 %19, i32* %2, align 4
  store i32 4, i32* %5, align 4
  br label %20

20:                                               ; preds = %34, %16
  %21 = load i32, i32* %5, align 4
  %22 = icmp sge i32 %21, 0
  br i1 %22, label %23, label %37

23:                                               ; preds = %20
  %24 = load i32, i32* %2, align 4
  %25 = load i32, i32* %2, align 4
  %26 = sdiv i32 %25, 10
  %27 = mul nsw i32 %26, 10
  %28 = sub nsw i32 %24, %27
  %29 = load i32, i32* %5, align 4
  %30 = sext i32 %29 to i64
  %31 = getelementptr inbounds [5 x i32], [5 x i32]* %3, i64 0, i64 %30
  store i32 %28, i32* %31, align 4
  %32 = load i32, i32* %2, align 4
  %33 = sdiv i32 %32, 10
  store i32 %33, i32* %2, align 4
  br label %34

34:                                               ; preds = %23
  %35 = load i32, i32* %5, align 4
  %36 = add nsw i32 %35, -1
  store i32 %36, i32* %5, align 4
  br label %20

37:                                               ; preds = %20
  %38 = load i32, i32* %4, align 4
  %39 = getelementptr inbounds [5 x i32], [5 x i32]* %3, i64 0, i64 4
  %40 = load i32, i32* %39, align 16
  %41 = mul nsw i32 10000, %40
  %42 = getelementptr inbounds [5 x i32], [5 x i32]* %3, i64 0, i64 3
  %43 = load i32, i32* %42, align 4
  %44 = mul nsw i32 1000, %43
  %45 = add nsw i32 %41, %44
  %46 = getelementptr inbounds [5 x i32], [5 x i32]* %3, i64 0, i64 2
  %47 = load i32, i32* %46, align 8
  %48 = mul nsw i32 100, %47
  %49 = add nsw i32 %45, %48
  %50 = getelementptr inbounds [5 x i32], [5 x i32]* %3, i64 0, i64 1
  %51 = load i32, i32* %50, align 4
  %52 = mul nsw i32 10, %51
  %53 = add nsw i32 %49, %52
  %54 = getelementptr inbounds [5 x i32], [5 x i32]* %3, i64 0, i64 0
  %55 = load i32, i32* %54, align 16
  %56 = add nsw i32 %53, %55
  %57 = mul nsw i32 %38, %56
  store i32 %57, i32* %6, align 4
  store i32 0, i32* %5, align 4
  br label %58

58:                                               ; preds = %78, %37
  %59 = load i32, i32* %5, align 4
  %60 = icmp slt i32 %59, 5
  br i1 %60, label %61, label %81

61:                                               ; preds = %58
  %62 = load i32, i32* %5, align 4
  %63 = sext i32 %62 to i64
  %64 = getelementptr inbounds [5 x i32], [5 x i32]* %3, i64 0, i64 %63
  %65 = load i32, i32* %64, align 4
  %66 = icmp eq i32 %65, 0
  br i1 %66, label %67, label %70

67:                                               ; preds = %61
  %68 = load i32, i32* %6, align 4
  %69 = sdiv i32 %68, 10
  store i32 %69, i32* %6, align 4
  br label %70

70:                                               ; preds = %67, %61
  %71 = load i32, i32* %5, align 4
  %72 = sext i32 %71 to i64
  %73 = getelementptr inbounds [5 x i32], [5 x i32]* %3, i64 0, i64 %72
  %74 = load i32, i32* %73, align 4
  %75 = icmp ne i32 %74, 0
  br i1 %75, label %76, label %77

76:                                               ; preds = %70
  br label %81

77:                                               ; preds = %70
  br label %78

78:                                               ; preds = %77
  %79 = load i32, i32* %5, align 4
  %80 = add nsw i32 %79, 1
  store i32 %80, i32* %5, align 4
  br label %58

81:                                               ; preds = %76, %58
  %82 = load i32, i32* %6, align 4
  ret i32 %82
}

declare dso_local i32 @printf(i8*, ...) #1


!llvm.module.flags = !{!0}
!llvm.ident = !{!1}

!0 = !{i32 1, !"wchar_size", i32 4}
!1 = !{!"clang version 10.0.0-4ubuntu1 "}
